; Function Attrs: mustprogress nofree norecurse nosync nounwind willreturn memory(argmem: readwrite) uwtable
define internal void @_ZN5faiss12_GLOBAL__N_118IVFBinaryScannerL2INS_17HammingComputer64EE9set_queryEPKh(ptr nocapture noundef nonnull writeonly align 8 dereferenceable(96) %0, ptr nocapture noundef readonly %1) unnamed_addr #12 align 2 {
  %3 = getelementptr inbounds i8, ptr %0, i64 8
  %4 = load i64, ptr %1, align 8
  store i64 %4, ptr %3, align 8
  %5 = getelementptr inbounds i8, ptr %1, i64 8
  %6 = load i64, ptr %5, align 8
  %7 = getelementptr inbounds i8, ptr %0, i64 16
  store i64 %6, ptr %7, align 8
  %8 = getelementptr inbounds i8, ptr %1, i64 16
  %9 = load i64, ptr %8, align 8
  %10 = getelementptr inbounds i8, ptr %0, i64 24
  store i64 %9, ptr %10, align 8
  %11 = getelementptr inbounds i8, ptr %1, i64 24
  %12 = load i64, ptr %11, align 8
  %13 = getelementptr inbounds i8, ptr %0, i64 32
  store i64 %12, ptr %13, align 8
  %14 = getelementptr inbounds i8, ptr %1, i64 32
  %15 = load i64, ptr %14, align 8
  %16 = getelementptr inbounds i8, ptr %0, i64 40
  store i64 %15, ptr %16, align 8
  %17 = getelementptr inbounds i8, ptr %1, i64 40
  %18 = load i64, ptr %17, align 8
  %19 = getelementptr inbounds i8, ptr %0, i64 48
  store i64 %18, ptr %19, align 8
  %20 = getelementptr inbounds i8, ptr %1, i64 48
  %21 = load i64, ptr %20, align 8
  %22 = getelementptr inbounds i8, ptr %0, i64 56
  store i64 %21, ptr %22, align 8
  %23 = getelementptr inbounds i8, ptr %1, i64 56
  %24 = load i64, ptr %23, align 8
  %25 = getelementptr inbounds i8, ptr %0, i64 64
  store i64 %24, ptr %25, align 8
  ret void
}